; Function Attrs: nounwind sspstrong uwtable
define dso_local void @cpu_dump_state(ptr noundef %0, ptr noundef %1, i32 noundef %2) local_unnamed_addr #0 {
  %4 = tail call ptr @object_get_class(ptr noundef %0) #12
  %5 = tail call ptr @object_class_dynamic_cast_assert(ptr noundef %4, ptr noundef nonnull @.str.3, ptr noundef nonnull @.str.4, i32 noundef 67, ptr noundef nonnull @__func__.CPU_GET_CLASS) #12
  %6 = getelementptr inbounds nuw i8, ptr %5, i64 224
  %7 = load ptr, ptr %6, align 8
  %.not = icmp eq ptr %7, null
  br i1 %.not, label %10, label %8

8:                                                ; preds = %3
  tail call void @cpu_synchronize_state(ptr noundef %0) #12
  %9 = load ptr, ptr %6, align 8
  tail call void %9(ptr noundef %0, ptr noundef %1, i32 noundef %2) #12
  br label %10

10:                                               ; preds = %8, %3
  ret void
}